target datalayout = "e-m:e-p270:32:32-p271:32:32-p272:64:64-i64:64-i128:128-f80:128-n8:16:32:64-S128"
target triple = "x86_64-unknown-linux-gnu"

%"class.std::variant" = type { %"struct.std::__detail::__variant::_Variant_base.base", [7 x i8] }
%"struct.std::__detail::__variant::_Variant_base.base" = type { %"struct.std::__detail::__variant::_Move_assign_base.base" }
%"struct.std::__detail::__variant::_Move_assign_base.base" = type { %"struct.std::__detail::__variant::_Copy_assign_base.base" }
%"struct.std::__detail::__variant::_Copy_assign_base.base" = type { %"struct.std::__detail::__variant::_Move_ctor_base.base" }
%"struct.std::__detail::__variant::_Move_ctor_base.base" = type { %"struct.std::__detail::__variant::_Copy_ctor_base.base" }
%"struct.std::__detail::__variant::_Copy_ctor_base.base" = type { %"struct.std::__detail::__variant::_Variant_storage.base" }
%"struct.std::__detail::__variant::_Variant_storage.base" = type <{ %"union.std::__detail::__variant::_Variadic_union", i8 }>
%"union.std::__detail::__variant::_Variadic_union" = type { %"union.std::__detail::__variant::_Variadic_union.202" }
%"union.std::__detail::__variant::_Variadic_union.202" = type { %"union.std::__detail::__variant::_Variadic_union.204" }
%"union.std::__detail::__variant::_Variadic_union.204" = type { %"struct.std::__detail::__variant::_Uninitialized.205" }
%"struct.std::__detail::__variant::_Uninitialized.205" = type { ptr }
%"class.hermes::ESTree::Node" = type { %"class.llvh::ilist_node", i32, i32, %"class.llvh::SMRange", %"class.llvh::SMLoc" }
%"class.llvh::ilist_node" = type { %"class.llvh::ilist_node_impl" }
%"class.llvh::ilist_node_impl" = type { %"class.llvh::ilist_node_base" }
%"class.llvh::ilist_node_base" = type { ptr, ptr }
%"class.llvh::SMRange" = type { %"class.llvh::SMLoc", %"class.llvh::SMLoc" }
%"class.llvh::SMLoc" = type { ptr }
%"class.hermes::ESTree::FlowNode" = type { %"class.hermes::ESTree::Node" }
%"class.hermes::ESTree::TypeParameterNode" = type <{ %"class.hermes::ESTree::FlowNode", ptr, ptr, ptr, ptr, i8, [7 x i8] }>

; Function Attrs: mustprogress nounwind uwtable
define internal void @_ZN6hermes6ESTree24RecursiveVisitorDispatchINS_12_GLOBAL__N_119DependencyExtractorELb1EE5visitERS3_bPNS0_4NodeE(ptr noundef nonnull align 8 dereferenceable(145) %0, i1 noundef zeroext %1, ptr noundef %2) #0 align 2 {
entry:
  %.addr = alloca ptr, align 8
  %.addr1 = alloca i8, align 1
  %.addr2 = alloca ptr, align 8
  store ptr %0, ptr %.addr, align 8
  %frombool = zext i1 %1 to i8
  store i8 %frombool, ptr %.addr1, align 1
  store ptr %2, ptr %.addr2, align 8
  ret void
}

; Function Attrs: mustprogress nounwind uwtable
define internal void @_ZN6hermes6ESTree24RecursiveVisitorDispatchINS_12_GLOBAL__N_119DependencyExtractorELb1EE5visitERS3_PNS_12UniqueStringEPNS0_4NodeE(ptr noundef nonnull align 8 dereferenceable(145) %0, ptr noundef %1, ptr noundef %2) #0 align 2 {
entry:
  %.addr = alloca ptr, align 8
  %.addr1 = alloca ptr, align 8
  %.addr2 = alloca ptr, align 8
  store ptr %0, ptr %.addr, align 8
  store ptr %1, ptr %.addr1, align 8
  store ptr %2, ptr %.addr2, align 8
  ret void
}

; Function Attrs: mustprogress nounwind uwtable
define internal void @_ZN6hermes6ESTree24RecursiveVisitorDispatchINS_12_GLOBAL__N_119DependencyExtractorELb1EE13visitChildrenERS3_PNS0_17TypeParameterNodeE(ptr noundef nonnull align 8 dereferenceable(145) %v, ptr noundef %node) #0 align 2 {
entry:
  %v.addr = alloca ptr, align 8
  %node.addr = alloca ptr, align 8
  %coerce = alloca %"class.std::variant", align 8
  %coerce2 = alloca %"class.std::variant", align 8
  %coerce4 = alloca %"class.std::variant", align 8
  store ptr %v, ptr %v.addr, align 8
  store ptr %node, ptr %node.addr, align 8
  %0 = load ptr, ptr %v.addr, align 8
  %1 = load ptr, ptr %node.addr, align 8
  %_name = getelementptr inbounds %"class.hermes::ESTree::TypeParameterNode", ptr %1, i32 0, i32 1
  %2 = load ptr, ptr %_name, align 8
  %3 = load ptr, ptr %node.addr, align 8
  call void @_ZN6hermes6ESTree24RecursiveVisitorDispatchINS_12_GLOBAL__N_119DependencyExtractorELb1EE5visitERS3_PNS_12UniqueStringEPNS0_4NodeE(ptr noundef nonnull align 8 dereferenceable(145) %0, ptr noundef %2, ptr noundef %3)
  %4 = load ptr, ptr %v.addr, align 8
  %5 = load ptr, ptr %node.addr, align 8
  %_bound = getelementptr inbounds %"class.hermes::ESTree::TypeParameterNode", ptr %5, i32 0, i32 2
  %6 = load ptr, ptr %_bound, align 8
  %7 = load ptr, ptr %node.addr, align 8
  %call = call { ptr, i8 } @_ZN6hermes6ESTree24RecursiveVisitorDispatchINS_12_GLOBAL__N_119DependencyExtractorELb1EE5visitERS3_PNS0_4NodeES7_(ptr noundef nonnull align 8 dereferenceable(145) %4, ptr noundef %6, ptr noundef %7)
  %8 = getelementptr inbounds { ptr, i8 }, ptr %coerce, i32 0, i32 0
  %9 = extractvalue { ptr, i8 } %call, 0
  store ptr %9, ptr %8, align 8
  %10 = getelementptr inbounds { ptr, i8 }, ptr %coerce, i32 0, i32 1
  %11 = extractvalue { ptr, i8 } %call, 1
  store i8 %11, ptr %10, align 8
  %12 = load ptr, ptr %v.addr, align 8
  %13 = load ptr, ptr %node.addr, align 8
  %_variance = getelementptr inbounds %"class.hermes::ESTree::TypeParameterNode", ptr %13, i32 0, i32 3
  %14 = load ptr, ptr %_variance, align 8
  %15 = load ptr, ptr %node.addr, align 8
  %call1 = call { ptr, i8 } @_ZN6hermes6ESTree24RecursiveVisitorDispatchINS_12_GLOBAL__N_119DependencyExtractorELb1EE5visitERS3_PNS0_4NodeES7_(ptr noundef nonnull align 8 dereferenceable(145) %12, ptr noundef %14, ptr noundef %15)
  %16 = getelementptr inbounds { ptr, i8 }, ptr %coerce2, i32 0, i32 0
  %17 = extractvalue { ptr, i8 } %call1, 0
  store ptr %17, ptr %16, align 8
  %18 = getelementptr inbounds { ptr, i8 }, ptr %coerce2, i32 0, i32 1
  %19 = extractvalue { ptr, i8 } %call1, 1
  store i8 %19, ptr %18, align 8
  %20 = load ptr, ptr %v.addr, align 8
  %21 = load ptr, ptr %node.addr, align 8
  %_default = getelementptr inbounds %"class.hermes::ESTree::TypeParameterNode", ptr %21, i32 0, i32 4
  %22 = load ptr, ptr %_default, align 8
  %23 = load ptr, ptr %node.addr, align 8
  %call3 = call { ptr, i8 } @_ZN6hermes6ESTree24RecursiveVisitorDispatchINS_12_GLOBAL__N_119DependencyExtractorELb1EE5visitERS3_PNS0_4NodeES7_(ptr noundef nonnull align 8 dereferenceable(145) %20, ptr noundef %22, ptr noundef %23)
  %24 = getelementptr inbounds { ptr, i8 }, ptr %coerce4, i32 0, i32 0
  %25 = extractvalue { ptr, i8 } %call3, 0
  store ptr %25, ptr %24, align 8
  %26 = getelementptr inbounds { ptr, i8 }, ptr %coerce4, i32 0, i32 1
  %27 = extractvalue { ptr, i8 } %call3, 1
  store i8 %27, ptr %26, align 8
  %28 = load ptr, ptr %v.addr, align 8
  %29 = load ptr, ptr %node.addr, align 8
  %_usesExtendsBound = getelementptr inbounds %"class.hermes::ESTree::TypeParameterNode", ptr %29, i32 0, i32 5
  %30 = load i8, ptr %_usesExtendsBound, align 8
  %tobool = trunc i8 %30 to i1
  %31 = load ptr, ptr %node.addr, align 8
  call void @_ZN6hermes6ESTree24RecursiveVisitorDispatchINS_12_GLOBAL__N_119DependencyExtractorELb1EE5visitERS3_bPNS0_4NodeE(ptr noundef nonnull align 8 dereferenceable(145) %28, i1 noundef zeroext %tobool, ptr noundef %31)
  ret void
}